target datalayout = "e-m:e-p270:32:32-p271:32:32-p272:64:64-i64:64-i128:128-f80:128-n8:16:32:64-S128"
target triple = "x86_64-pc-linux-gnu"

%struct.JoinPathExtraData = type { ptr, ptr, i8, ptr, %struct.SemiAntiJoinFactors, ptr }
%struct.SemiAntiJoinFactors = type { double, double }
%struct.SpecialJoinInfo = type { i32, ptr, ptr, ptr, ptr, i32, i32, ptr, ptr, ptr, ptr, i8, i8, i8, ptr, ptr }
%struct.Path = type { i32, i32, ptr, ptr, ptr, i8, i8, i32, double, i32, double, double, ptr }
%struct.ParamPathInfo = type { i32, ptr, double, ptr, ptr }
%struct.JoinCostWorkspace = type { i32, double, double, double, double, double, double, double, double, double, i32, i32, double }

; Function Attrs: nounwind uwtable
define internal void @try_mergejoin_path(ptr noundef %0, ptr noundef %1, ptr noundef %2, ptr noundef %3, ptr noundef %4, ptr noundef %5, ptr noundef %6, ptr noundef %7, i32 noundef %8, ptr noundef %9, i1 noundef zeroext %10) #0 {
  %12 = alloca ptr, align 8
  %13 = alloca ptr, align 8
  %14 = alloca ptr, align 8
  %15 = alloca ptr, align 8
  %16 = alloca ptr, align 8
  %17 = alloca ptr, align 8
  %18 = alloca ptr, align 8
  %19 = alloca ptr, align 8
  %20 = alloca i32, align 4
  %21 = alloca ptr, align 8
  %22 = alloca i8, align 1
  %23 = alloca ptr, align 8
  %24 = alloca %struct.JoinCostWorkspace, align 8
  %25 = alloca i32, align 4
  store ptr %0, ptr %12, align 8
  store ptr %1, ptr %13, align 8
  store ptr %2, ptr %14, align 8
  store ptr %3, ptr %15, align 8
  store ptr %4, ptr %16, align 8
  store ptr %5, ptr %17, align 8
  store ptr %6, ptr %18, align 8
  store ptr %7, ptr %19, align 8
  store i32 %8, ptr %20, align 4
  store ptr %9, ptr %21, align 8
  %26 = zext i1 %10 to i8
  store i8 %26, ptr %22, align 1
  call void @llvm.lifetime.start.p0(i64 8, ptr %23) #6
  call void @llvm.lifetime.start.p0(i64 96, ptr %24) #6
  %27 = load i8, ptr %22, align 1, !range !4, !noundef !5
  %28 = trunc i8 %27 to i1
  br i1 %28, label %29, label %40

29:                                               ; preds = %11
  %30 = load ptr, ptr %12, align 8
  %31 = load ptr, ptr %13, align 8
  %32 = load ptr, ptr %14, align 8
  %33 = load ptr, ptr %15, align 8
  %34 = load ptr, ptr %16, align 8
  %35 = load ptr, ptr %17, align 8
  %36 = load ptr, ptr %18, align 8
  %37 = load ptr, ptr %19, align 8
  %38 = load i32, ptr %20, align 4
  %39 = load ptr, ptr %21, align 8
  call void @try_partial_mergejoin_path(ptr noundef %30, ptr noundef %31, ptr noundef %32, ptr noundef %33, ptr noundef %34, ptr noundef %35, ptr noundef %36, ptr noundef %37, i32 noundef %38, ptr noundef %39)
  store i32 1, ptr %25, align 4
  br label %161

40:                                               ; preds = %11
  %41 = load ptr, ptr %21, align 8
  %42 = getelementptr inbounds nuw %struct.JoinPathExtraData, ptr %41, i32 0, i32 3
  %43 = load ptr, ptr %42, align 8
  %44 = getelementptr inbounds nuw %struct.SpecialJoinInfo, ptr %43, i32 0, i32 6
  %45 = load i32, ptr %44, align 4
  %46 = icmp ne i32 %45, 0
  br i1 %46, label %47, label %88

47:                                               ; preds = %40
  %48 = load ptr, ptr %21, align 8
  %49 = getelementptr inbounds nuw %struct.JoinPathExtraData, ptr %48, i32 0, i32 3
  %50 = load ptr, ptr %49, align 8
  %51 = getelementptr inbounds nuw %struct.SpecialJoinInfo, ptr %50, i32 0, i32 6
  %52 = load i32, ptr %51, align 4
  %53 = load ptr, ptr %15, align 8
  %54 = getelementptr inbounds nuw %struct.Path, ptr %53, i32 0, i32 4
  %55 = load ptr, ptr %54, align 8
  %56 = icmp ne ptr %55, null
  br i1 %56, label %57, label %63

57:                                               ; preds = %47
  %58 = load ptr, ptr %15, align 8
  %59 = getelementptr inbounds nuw %struct.Path, ptr %58, i32 0, i32 4
  %60 = load ptr, ptr %59, align 8
  %61 = getelementptr inbounds nuw %struct.ParamPathInfo, ptr %60, i32 0, i32 1
  %62 = load ptr, ptr %61, align 8
  br label %64

63:                                               ; preds = %47
  br label %64

64:                                               ; preds = %63, %57
  %65 = phi ptr [ %62, %57 ], [ null, %63 ]
  %66 = call zeroext i1 @bms_is_member(i32 noundef %52, ptr noundef %65)
  br i1 %66, label %87, label %67

67:                                               ; preds = %64
  %68 = load ptr, ptr %21, align 8
  %69 = getelementptr inbounds nuw %struct.JoinPathExtraData, ptr %68, i32 0, i32 3
  %70 = load ptr, ptr %69, align 8
  %71 = getelementptr inbounds nuw %struct.SpecialJoinInfo, ptr %70, i32 0, i32 6
  %72 = load i32, ptr %71, align 4
  %73 = load ptr, ptr %14, align 8
  %74 = getelementptr inbounds nuw %struct.Path, ptr %73, i32 0, i32 4
  %75 = load ptr, ptr %74, align 8
  %76 = icmp ne ptr %75, null
  br i1 %76, label %77, label %83

77:                                               ; preds = %67
  %78 = load ptr, ptr %14, align 8
  %79 = getelementptr inbounds nuw %struct.Path, ptr %78, i32 0, i32 4
  %80 = load ptr, ptr %79, align 8
  %81 = getelementptr inbounds nuw %struct.ParamPathInfo, ptr %80, i32 0, i32 1
  %82 = load ptr, ptr %81, align 8
  br label %84

83:                                               ; preds = %67
  br label %84

84:                                               ; preds = %83, %77
  %85 = phi ptr [ %82, %77 ], [ null, %83 ]
  %86 = call zeroext i1 @bms_is_member(i32 noundef %72, ptr noundef %85)
  br i1 %86, label %87, label %88

87:                                               ; preds = %84, %64
  store i32 1, ptr %25, align 4
  br label %161

88:                                               ; preds = %84, %40
  %89 = load ptr, ptr %14, align 8
  %90 = load ptr, ptr %15, align 8
  %91 = call ptr @calc_non_nestloop_required_outer(ptr noundef %89, ptr noundef %90)
  store ptr %91, ptr %23, align 8
  %92 = load ptr, ptr %23, align 8
  %93 = icmp ne ptr %92, null
  br i1 %93, label %94, label %102

94:                                               ; preds = %88
  %95 = load ptr, ptr %23, align 8
  %96 = load ptr, ptr %21, align 8
  %97 = getelementptr inbounds nuw %struct.JoinPathExtraData, ptr %96, i32 0, i32 5
  %98 = load ptr, ptr %97, align 8
  %99 = call zeroext i1 @bms_overlap(ptr noundef %95, ptr noundef %98)
  br i1 %99, label %102, label %100

100:                                              ; preds = %94
  %101 = load ptr, ptr %23, align 8
  call void @bms_free(ptr noundef %101)
  store i32 1, ptr %25, align 4
  br label %161

102:                                              ; preds = %94, %88
  %103 = load ptr, ptr %18, align 8
  %104 = icmp ne ptr %103, null
  br i1 %104, label %105, label %112

105:                                              ; preds = %102
  %106 = load ptr, ptr %18, align 8
  %107 = load ptr, ptr %14, align 8
  %108 = getelementptr inbounds nuw %struct.Path, ptr %107, i32 0, i32 12
  %109 = load ptr, ptr %108, align 8
  %110 = call zeroext i1 @pathkeys_contained_in(ptr noundef %106, ptr noundef %109)
  br i1 %110, label %111, label %112

111:                                              ; preds = %105
  store ptr null, ptr %18, align 8
  br label %112

112:                                              ; preds = %111, %105, %102
  %113 = load ptr, ptr %19, align 8
  %114 = icmp ne ptr %113, null
  br i1 %114, label %115, label %122

115:                                              ; preds = %112
  %116 = load ptr, ptr %19, align 8
  %117 = load ptr, ptr %15, align 8
  %118 = getelementptr inbounds nuw %struct.Path, ptr %117, i32 0, i32 12
  %119 = load ptr, ptr %118, align 8
  %120 = call zeroext i1 @pathkeys_contained_in(ptr noundef %116, ptr noundef %119)
  br i1 %120, label %121, label %122

121:                                              ; preds = %115
  store ptr null, ptr %19, align 8
  br label %122

122:                                              ; preds = %121, %115, %112
  %123 = load ptr, ptr %12, align 8
  %124 = load i32, ptr %20, align 4
  %125 = load ptr, ptr %17, align 8
  %126 = load ptr, ptr %14, align 8
  %127 = load ptr, ptr %15, align 8
  %128 = load ptr, ptr %18, align 8
  %129 = load ptr, ptr %19, align 8
  %130 = load ptr, ptr %21, align 8
  call void @initial_cost_mergejoin(ptr noundef %123, ptr noundef %24, i32 noundef %124, ptr noundef %125, ptr noundef %126, ptr noundef %127, ptr noundef %128, ptr noundef %129, ptr noundef %130)
  %131 = load ptr, ptr %13, align 8
  %132 = getelementptr inbounds nuw %struct.JoinCostWorkspace, ptr %24, i32 0, i32 0
  %133 = load i32, ptr %132, align 8
  %134 = getelementptr inbounds nuw %struct.JoinCostWorkspace, ptr %24, i32 0, i32 1
  %135 = load double, ptr %134, align 8
  %136 = getelementptr inbounds nuw %struct.JoinCostWorkspace, ptr %24, i32 0, i32 2
  %137 = load double, ptr %136, align 8
  %138 = load ptr, ptr %16, align 8
  %139 = load ptr, ptr %23, align 8
  %140 = call zeroext i1 @add_path_precheck(ptr noundef %131, i32 noundef %133, double noundef %135, double noundef %137, ptr noundef %138, ptr noundef %139)
  br i1 %140, label %141, label %158

141:                                              ; preds = %122
  %142 = load ptr, ptr %13, align 8
  %143 = load ptr, ptr %12, align 8
  %144 = load ptr, ptr %13, align 8
  %145 = load i32, ptr %20, align 4
  %146 = load ptr, ptr %21, align 8
  %147 = load ptr, ptr %14, align 8
  %148 = load ptr, ptr %15, align 8
  %149 = load ptr, ptr %21, align 8
  %150 = getelementptr inbounds nuw %struct.JoinPathExtraData, ptr %149, i32 0, i32 0
  %151 = load ptr, ptr %150, align 8
  %152 = load ptr, ptr %16, align 8
  %153 = load ptr, ptr %23, align 8
  %154 = load ptr, ptr %17, align 8
  %155 = load ptr, ptr %18, align 8
  %156 = load ptr, ptr %19, align 8
  %157 = call ptr @create_mergejoin_path(ptr noundef %143, ptr noundef %144, i32 noundef %145, ptr noundef %24, ptr noundef %146, ptr noundef %147, ptr noundef %148, ptr noundef %151, ptr noundef %152, ptr noundef %153, ptr noundef %154, ptr noundef %155, ptr noundef %156)
  call void @add_path(ptr noundef %142, ptr noundef %157)
  br label %160

158:                                              ; preds = %122
  %159 = load ptr, ptr %23, align 8
  call void @bms_free(ptr noundef %159)
  br label %160

160:                                              ; preds = %158, %141
  store i32 0, ptr %25, align 4
  br label %161

161:                                              ; preds = %160, %100, %87, %29
  call void @llvm.lifetime.end.p0(i64 96, ptr %24) #6
  call void @llvm.lifetime.end.p0(i64 8, ptr %23) #6
  %162 = load i32, ptr %25, align 4
  switch i32 %162, label %164 [
    i32 0, label %163
    i32 1, label %163
  ]

163:                                              ; preds = %161, %161
  ret void

164:                                              ; preds = %161
  unreachable
}