; Function Attrs: nounwind uwtable
define internal fastcc void @try_mergejoin_path(ptr noundef %0, ptr noundef %1, ptr noundef %2, ptr noundef %3, ptr noundef %4, ptr noundef %5, ptr noundef %6, ptr noundef %7, i32 noundef %8, ptr noundef nonnull %9, i1 noundef zeroext %10) unnamed_addr #0 {
  %12 = alloca %struct.JoinCostWorkspace, align 8
  call void @llvm.lifetime.start.p0(i64 96, ptr nonnull %12) #5
  br i1 %10, label %13, label %14

13:                                               ; preds = %11
  tail call fastcc void @try_partial_mergejoin_path(ptr noundef %0, ptr noundef %1, ptr noundef %2, ptr noundef %3, ptr noundef %4, ptr noundef %5, ptr noundef %6, ptr noundef %7, i32 noundef %8, ptr noundef %9)
  br label %68

14:                                               ; preds = %11
  %15 = getelementptr inbounds nuw i8, ptr %9, i64 24
  %16 = load ptr, ptr %15, align 8
  %17 = getelementptr inbounds nuw i8, ptr %16, i64 44
  %18 = load i32, ptr %17, align 4
  %.not = icmp eq i32 %18, 0
  br i1 %.not, label %40, label %19

19:                                               ; preds = %14
  %20 = getelementptr inbounds nuw i8, ptr %3, i64 24
  %21 = load ptr, ptr %20, align 8
  %.not62 = icmp eq ptr %21, null
  br i1 %.not62, label %25, label %22

22:                                               ; preds = %19
  %23 = getelementptr inbounds nuw i8, ptr %21, i64 8
  %24 = load ptr, ptr %23, align 8
  br label %25

25:                                               ; preds = %19, %22
  %26 = phi ptr [ %24, %22 ], [ null, %19 ]
  %27 = tail call zeroext i1 @bms_is_member(i32 noundef %18, ptr noundef %26) #5
  br i1 %27, label %68, label %28

28:                                               ; preds = %25
  %29 = load ptr, ptr %15, align 8
  %30 = getelementptr inbounds nuw i8, ptr %29, i64 44
  %31 = load i32, ptr %30, align 4
  %32 = getelementptr inbounds nuw i8, ptr %2, i64 24
  %33 = load ptr, ptr %32, align 8
  %.not63 = icmp eq ptr %33, null
  br i1 %.not63, label %37, label %34

34:                                               ; preds = %28
  %35 = getelementptr inbounds nuw i8, ptr %33, i64 8
  %36 = load ptr, ptr %35, align 8
  br label %37

37:                                               ; preds = %28, %34
  %38 = phi ptr [ %36, %34 ], [ null, %28 ]
  %39 = tail call zeroext i1 @bms_is_member(i32 noundef %31, ptr noundef %38) #5
  br i1 %39, label %68, label %40

40:                                               ; preds = %37, %14
  %41 = tail call ptr @calc_non_nestloop_required_outer(ptr noundef %2, ptr noundef %3) #5
  %.not64 = icmp eq ptr %41, null
  br i1 %.not64, label %47, label %42

42:                                               ; preds = %40
  %43 = getelementptr inbounds nuw i8, ptr %9, i64 48
  %44 = load ptr, ptr %43, align 8
  %45 = tail call zeroext i1 @bms_overlap(ptr noundef nonnull %41, ptr noundef %44) #5
  br i1 %45, label %47, label %46

46:                                               ; preds = %42
  tail call void @bms_free(ptr noundef nonnull %41) #5
  br label %68

47:                                               ; preds = %42, %40
  %.not65 = icmp eq ptr %6, null
  br i1 %.not65, label %52, label %48

48:                                               ; preds = %47
  %49 = getelementptr inbounds nuw i8, ptr %2, i64 72
  %50 = load ptr, ptr %49, align 8
  %51 = tail call zeroext i1 @pathkeys_contained_in(ptr noundef nonnull %6, ptr noundef %50) #5
  %spec.select = select i1 %51, ptr null, ptr %6
  br label %52

52:                                               ; preds = %48, %47
  %.0 = phi ptr [ null, %47 ], [ %spec.select, %48 ]
  %.not66 = icmp eq ptr %7, null
  br i1 %.not66, label %57, label %53

53:                                               ; preds = %52
  %54 = getelementptr inbounds nuw i8, ptr %3, i64 72
  %55 = load ptr, ptr %54, align 8
  %56 = tail call zeroext i1 @pathkeys_contained_in(ptr noundef nonnull %7, ptr noundef %55) #5
  %spec.select67 = select i1 %56, ptr null, ptr %7
  br label %57

57:                                               ; preds = %53, %52
  %.054 = phi ptr [ null, %52 ], [ %spec.select67, %53 ]
  call void @initial_cost_mergejoin(ptr noundef %0, ptr noundef nonnull %12, i32 noundef %8, ptr noundef %5, ptr noundef %2, ptr noundef %3, ptr noundef %.0, ptr noundef %.054, ptr noundef nonnull %9) #5
  %58 = load i32, ptr %12, align 8
  %59 = getelementptr inbounds nuw i8, ptr %12, i64 8
  %60 = load double, ptr %59, align 8
  %61 = getelementptr inbounds nuw i8, ptr %12, i64 16
  %62 = load double, ptr %61, align 8
  %63 = call zeroext i1 @add_path_precheck(ptr noundef %1, i32 noundef %58, double noundef %60, double noundef %62, ptr noundef %4, ptr noundef %41) #5
  br i1 %63, label %64, label %67

64:                                               ; preds = %57
  %65 = load ptr, ptr %9, align 8
  %66 = call ptr @create_mergejoin_path(ptr noundef %0, ptr noundef %1, i32 noundef %8, ptr noundef nonnull %12, ptr noundef nonnull %9, ptr noundef %2, ptr noundef %3, ptr noundef %65, ptr noundef %4, ptr noundef %41, ptr noundef %5, ptr noundef %.0, ptr noundef %.054) #5
  call void @add_path(ptr noundef %1, ptr noundef %66) #5
  br label %68

67:                                               ; preds = %57
  call void @bms_free(ptr noundef %41) #5
  br label %68

68:                                               ; preds = %64, %67, %25, %37, %46, %13
  call void @llvm.lifetime.end.p0(i64 96, ptr nonnull %12) #5
  ret void
}